target datalayout = "e-m:e-p270:32:32-p271:32:32-p272:64:64-i64:64-i128:128-f80:128-n8:16:32:64-S128"
target triple = "x86_64-pc-linux-gnu"

%struct.tls_buffer_st = type { ptr, i64, i64, i64, i64, i32, i32 }
%struct.tls_rl_record_st = type { i32, i32, i64, i64, i64, ptr, ptr, ptr, i16, [8 x i8] }
%struct.ossl_record_layer_st = type { ptr, ptr, i32, i32, i32, i32, i32, ptr, i16, ptr, ptr, ptr, i64, i32, [33 x %struct.tls_buffer_st], i64, i64, %struct.tls_buffer_st, [32 x %struct.tls_rl_record_st], i64, i64, i64, i32, ptr, i64, [8 x i8], i32, i32, i64, i32, ptr, ptr, i64, ptr, ptr, i32, i32, i32, i64, i64, i64, [64 x i8], i32, i32, i32, ptr, ptr, i32, i32, i64, ptr, ptr, %struct.dtls_bitmap_st, %struct.dtls_bitmap_st, i32, ptr, ptr, ptr, ptr, ptr, i64, ptr }
%struct.dtls_bitmap_st = type { i64, [8 x i8] }

@.str = private unnamed_addr constant [43 x i8] c"../openssl/ssl/record/methods/tls_common.c\00", align 1
@__func__.tls_setup_write_buffer = private unnamed_addr constant [23 x i8] c"tls_setup_write_buffer\00", align 1

; Function Attrs: nounwind uwtable
define internal void @tls_release_write_buffer_int(ptr noundef %0, i64 noundef %1) #0 {
  %3 = alloca ptr, align 8
  %4 = alloca i64, align 8
  %5 = alloca ptr, align 8
  %6 = alloca i64, align 8
  store ptr %0, ptr %3, align 8, !tbaa !16
  store i64 %1, ptr %4, align 8, !tbaa !38
  call void @llvm.lifetime.start.p0(i64 8, ptr %5) #10
  call void @llvm.lifetime.start.p0(i64 8, ptr %6) #10
  %7 = load ptr, ptr %3, align 8, !tbaa !16
  %8 = getelementptr inbounds nuw %struct.ossl_record_layer_st, ptr %7, i32 0, i32 16
  %9 = load i64, ptr %8, align 8, !tbaa !49
  store i64 %9, ptr %6, align 8, !tbaa !38
  br label %10

10:                                               ; preds = %31, %2
  %11 = load i64, ptr %6, align 8, !tbaa !38
  %12 = load i64, ptr %4, align 8, !tbaa !38
  %13 = icmp ugt i64 %11, %12
  br i1 %13, label %14, label %36

14:                                               ; preds = %10
  %15 = load ptr, ptr %3, align 8, !tbaa !16
  %16 = getelementptr inbounds nuw %struct.ossl_record_layer_st, ptr %15, i32 0, i32 14
  %17 = load i64, ptr %6, align 8, !tbaa !38
  %18 = sub i64 %17, 1
  %19 = getelementptr inbounds nuw [33 x %struct.tls_buffer_st], ptr %16, i64 0, i64 %18
  store ptr %19, ptr %5, align 8, !tbaa !3
  %20 = load ptr, ptr %5, align 8, !tbaa !3
  %21 = getelementptr inbounds nuw %struct.tls_buffer_st, ptr %20, i32 0, i32 5
  %22 = load i32, ptr %21, align 8, !tbaa !54
  %23 = icmp ne i32 %22, 0
  br i1 %23, label %24, label %27

24:                                               ; preds = %14
  %25 = load ptr, ptr %5, align 8, !tbaa !3
  %26 = getelementptr inbounds nuw %struct.tls_buffer_st, ptr %25, i32 0, i32 5
  store i32 0, ptr %26, align 8, !tbaa !54
  br label %31

27:                                               ; preds = %14
  %28 = load ptr, ptr %5, align 8, !tbaa !3
  %29 = getelementptr inbounds nuw %struct.tls_buffer_st, ptr %28, i32 0, i32 0
  %30 = load ptr, ptr %29, align 8, !tbaa !8
  call void @CRYPTO_free(ptr noundef %30, ptr noundef @.str, i32 noundef 136)
  br label %31

31:                                               ; preds = %27, %24
  %32 = load ptr, ptr %5, align 8, !tbaa !3
  %33 = getelementptr inbounds nuw %struct.tls_buffer_st, ptr %32, i32 0, i32 0
  store ptr null, ptr %33, align 8, !tbaa !8
  %34 = load i64, ptr %6, align 8, !tbaa !38
  %35 = add i64 %34, -1
  store i64 %35, ptr %6, align 8, !tbaa !38
  br label %10, !llvm.loop !55

36:                                               ; preds = %10
  call void @llvm.lifetime.end.p0(i64 8, ptr %6) #10
  call void @llvm.lifetime.end.p0(i64 8, ptr %5) #10
  ret void
}

; Function Attrs: nounwind uwtable
define internal i32 @tls_allow_compression(ptr noundef %0) #0 {
  %2 = alloca i32, align 4
  %3 = alloca ptr, align 8
  store ptr %0, ptr %3, align 8, !tbaa !16
  %4 = load ptr, ptr %3, align 8, !tbaa !16
  %5 = getelementptr inbounds nuw %struct.ossl_record_layer_st, ptr %4, i32 0, i32 12
  %6 = load i64, ptr %5, align 8, !tbaa !47
  %7 = and i64 %6, 131072
  %8 = icmp ne i64 %7, 0
  br i1 %8, label %9, label %10

9:                                                ; preds = %1
  store i32 0, ptr %2, align 4
  br label %27

10:                                               ; preds = %1
  %11 = load ptr, ptr %3, align 8, !tbaa !16
  %12 = getelementptr inbounds nuw %struct.ossl_record_layer_st, ptr %11, i32 0, i32 58
  %13 = load ptr, ptr %12, align 8, !tbaa !52
  %14 = icmp eq ptr %13, null
  br i1 %14, label %24, label %15

15:                                               ; preds = %10
  %16 = load ptr, ptr %3, align 8, !tbaa !16
  %17 = getelementptr inbounds nuw %struct.ossl_record_layer_st, ptr %16, i32 0, i32 58
  %18 = load ptr, ptr %17, align 8, !tbaa !52
  %19 = load ptr, ptr %3, align 8, !tbaa !16
  %20 = getelementptr inbounds nuw %struct.ossl_record_layer_st, ptr %19, i32 0, i32 55
  %21 = load ptr, ptr %20, align 8, !tbaa !53
  %22 = call i32 %18(ptr noundef %21, i32 noundef 15, i32 noundef 0, i32 noundef 0, ptr noundef null)
  %23 = icmp ne i32 %22, 0
  br label %24

24:                                               ; preds = %15, %10
  %25 = phi i1 [ true, %10 ], [ %23, %15 ]
  %26 = zext i1 %25 to i32
  store i32 %26, ptr %2, align 4
  br label %27

27:                                               ; preds = %24, %9
  %28 = load i32, ptr %2, align 4
  ret i32 %28
}

; Function Attrs: nounwind uwtable
define i32 @tls_setup_write_buffer(ptr noundef %0, i64 noundef %1, i64 noundef %2, i64 noundef %3) #0 {
  %5 = alloca i32, align 4
  %6 = alloca ptr, align 8
  %7 = alloca i64, align 8
  %8 = alloca i64, align 8
  %9 = alloca i64, align 8
  %10 = alloca ptr, align 8
  %11 = alloca i64, align 8
  %12 = alloca i64, align 8
  %13 = alloca ptr, align 8
  %14 = alloca i64, align 8
  %15 = alloca i64, align 8
  %16 = alloca i64, align 8
  %17 = alloca ptr, align 8
  %18 = alloca i64, align 8
  %19 = alloca i32, align 4
  store ptr %0, ptr %6, align 8, !tbaa !16
  store i64 %1, ptr %7, align 8, !tbaa !38
  store i64 %2, ptr %8, align 8, !tbaa !38
  store i64 %3, ptr %9, align 8, !tbaa !38
  call void @llvm.lifetime.start.p0(i64 8, ptr %10) #10
  call void @llvm.lifetime.start.p0(i64 8, ptr %11) #10
  store i64 0, ptr %11, align 8, !tbaa !38
  call void @llvm.lifetime.start.p0(i64 8, ptr %12) #10
  call void @llvm.lifetime.start.p0(i64 8, ptr %13) #10
  call void @llvm.lifetime.start.p0(i64 8, ptr %14) #10
  call void @llvm.lifetime.start.p0(i64 8, ptr %15) #10
  store i64 0, ptr %15, align 8, !tbaa !38
  call void @llvm.lifetime.start.p0(i64 8, ptr %16) #10
  store i64 0, ptr %16, align 8, !tbaa !38
  %20 = load i64, ptr %8, align 8, !tbaa !38
  %21 = icmp eq i64 %20, 0
  br i1 %21, label %28, label %22

22:                                               ; preds = %4
  %23 = load i64, ptr %7, align 8, !tbaa !38
  %24 = icmp ugt i64 %23, 1
  br i1 %24, label %25, label %77

25:                                               ; preds = %22
  %26 = load i64, ptr %9, align 8, !tbaa !38
  %27 = icmp eq i64 %26, 0
  br i1 %27, label %28, label %77

28:                                               ; preds = %25, %4
  %29 = load ptr, ptr %6, align 8, !tbaa !16
  %30 = getelementptr inbounds nuw %struct.ossl_record_layer_st, ptr %29, i32 0, i32 2
  %31 = load i32, ptr %30, align 8, !tbaa !43
  %32 = icmp ne i32 %31, 0
  br i1 %32, label %33, label %34

33:                                               ; preds = %28
  store i64 14, ptr %12, align 8, !tbaa !38
  br label %35

34:                                               ; preds = %28
  store i64 5, ptr %12, align 8, !tbaa !38
  br label %35

35:                                               ; preds = %34, %33
  %36 = load ptr, ptr %6, align 8, !tbaa !16
  %37 = getelementptr inbounds nuw %struct.ossl_record_layer_st, ptr %36, i32 0, i32 3
  %38 = load i32, ptr %37, align 4, !tbaa !44
  %39 = icmp eq i32 %38, 772
  br i1 %39, label %40, label %41

40:                                               ; preds = %35
  store i64 1, ptr %16, align 8, !tbaa !38
  br label %41

41:                                               ; preds = %40, %35
  store i64 7, ptr %11, align 8, !tbaa !38
  %42 = load i64, ptr %11, align 8, !tbaa !38
  %43 = load i64, ptr %12, align 8, !tbaa !38
  %44 = add i64 %42, %43
  %45 = load ptr, ptr %6, align 8, !tbaa !16
  %46 = getelementptr inbounds nuw %struct.ossl_record_layer_st, ptr %45, i32 0, i32 32
  %47 = load i64, ptr %46, align 8, !tbaa !45
  %48 = add i64 %44, %47
  %49 = load ptr, ptr %6, align 8, !tbaa !16
  %50 = getelementptr inbounds nuw %struct.ossl_record_layer_st, ptr %49, i32 0, i32 36
  %51 = load i32, ptr %50, align 4, !tbaa !46
  %52 = zext i32 %51 to i64
  %53 = add i64 %48, %52
  %54 = load i64, ptr %16, align 8, !tbaa !38
  %55 = add i64 %53, %54
  %56 = add i64 %55, 80
  store i64 %56, ptr %15, align 8, !tbaa !38
  %57 = load ptr, ptr %6, align 8, !tbaa !16
  %58 = call i32 @tls_allow_compression(ptr noundef %57)
  %59 = icmp ne i32 %58, 0
  br i1 %59, label %60, label %63

60:                                               ; preds = %41
  %61 = load i64, ptr %15, align 8, !tbaa !38
  %62 = add i64 %61, 1024
  store i64 %62, ptr %15, align 8, !tbaa !38
  br label %63

63:                                               ; preds = %60, %41
  %64 = load ptr, ptr %6, align 8, !tbaa !16
  %65 = getelementptr inbounds nuw %struct.ossl_record_layer_st, ptr %64, i32 0, i32 12
  %66 = load i64, ptr %65, align 8, !tbaa !47
  %67 = and i64 %66, 2048
  %68 = icmp eq i64 %67, 0
  br i1 %68, label %69, label %76

69:                                               ; preds = %63
  %70 = load i64, ptr %12, align 8, !tbaa !38
  %71 = load i64, ptr %11, align 8, !tbaa !38
  %72 = add i64 %70, %71
  %73 = add i64 %72, 80
  %74 = load i64, ptr %15, align 8, !tbaa !38
  %75 = add i64 %74, %73
  store i64 %75, ptr %15, align 8, !tbaa !38
  br label %76

76:                                               ; preds = %69, %63
  br label %77

77:                                               ; preds = %76, %25, %22
  %78 = load ptr, ptr %6, align 8, !tbaa !16
  %79 = getelementptr inbounds nuw %struct.ossl_record_layer_st, ptr %78, i32 0, i32 14
  %80 = getelementptr inbounds [33 x %struct.tls_buffer_st], ptr %79, i64 0, i64 0
  store ptr %80, ptr %13, align 8, !tbaa !3
  store i64 0, ptr %14, align 8, !tbaa !38
  br label %81

81:                                               ; preds = %148, %77
  %82 = load i64, ptr %14, align 8, !tbaa !38
  %83 = load i64, ptr %7, align 8, !tbaa !38
  %84 = icmp ult i64 %82, %83
  br i1 %84, label %85, label %151

85:                                               ; preds = %81
  call void @llvm.lifetime.start.p0(i64 8, ptr %17) #10
  %86 = load ptr, ptr %13, align 8, !tbaa !3
  %87 = load i64, ptr %14, align 8, !tbaa !38
  %88 = getelementptr inbounds nuw %struct.tls_buffer_st, ptr %86, i64 %87
  store ptr %88, ptr %17, align 8, !tbaa !3
  call void @llvm.lifetime.start.p0(i64 8, ptr %18) #10
  %89 = load i64, ptr %14, align 8, !tbaa !38
  %90 = icmp eq i64 %89, 0
  br i1 %90, label %91, label %93

91:                                               ; preds = %85
  %92 = load i64, ptr %8, align 8, !tbaa !38
  br label %95

93:                                               ; preds = %85
  %94 = load i64, ptr %9, align 8, !tbaa !38
  br label %95

95:                                               ; preds = %93, %91
  %96 = phi i64 [ %92, %91 ], [ %94, %93 ]
  store i64 %96, ptr %18, align 8, !tbaa !38
  %97 = load i64, ptr %18, align 8, !tbaa !38
  %98 = icmp eq i64 %97, 0
  br i1 %98, label %99, label %101

99:                                               ; preds = %95
  %100 = load i64, ptr %15, align 8, !tbaa !38
  store i64 %100, ptr %18, align 8, !tbaa !38
  br label %101

101:                                              ; preds = %99, %95
  %102 = load ptr, ptr %17, align 8, !tbaa !3
  %103 = getelementptr inbounds nuw %struct.tls_buffer_st, ptr %102, i32 0, i32 2
  %104 = load i64, ptr %103, align 8, !tbaa !48
  %105 = load i64, ptr %18, align 8, !tbaa !38
  %106 = icmp ne i64 %104, %105
  br i1 %106, label %107, label %113

107:                                              ; preds = %101
  %108 = load ptr, ptr %17, align 8, !tbaa !3
  %109 = getelementptr inbounds nuw %struct.tls_buffer_st, ptr %108, i32 0, i32 0
  %110 = load ptr, ptr %109, align 8, !tbaa !8
  call void @CRYPTO_free(ptr noundef %110, ptr noundef @.str, i32 noundef 190)
  %111 = load ptr, ptr %17, align 8, !tbaa !3
  %112 = getelementptr inbounds nuw %struct.tls_buffer_st, ptr %111, i32 0, i32 0
  store ptr null, ptr %112, align 8, !tbaa !8
  br label %113

113:                                              ; preds = %107, %101
  %114 = load ptr, ptr %17, align 8, !tbaa !3
  %115 = getelementptr inbounds nuw %struct.tls_buffer_st, ptr %114, i32 0, i32 0
  %116 = load ptr, ptr %115, align 8, !tbaa !8
  store ptr %116, ptr %10, align 8, !tbaa !15
  %117 = load ptr, ptr %10, align 8, !tbaa !15
  %118 = icmp eq ptr %117, null
  br i1 %118, label %119, label %137

119:                                              ; preds = %113
  %120 = load i64, ptr %18, align 8, !tbaa !38
  %121 = call noalias ptr @CRYPTO_malloc(i64 noundef %120, ptr noundef @.str, i32 noundef 196)
  store ptr %121, ptr %10, align 8, !tbaa !15
  %122 = load ptr, ptr %10, align 8, !tbaa !15
  %123 = icmp eq ptr %122, null
  br i1 %123, label %124, label %136

124:                                              ; preds = %119
  %125 = load ptr, ptr %6, align 8, !tbaa !16
  %126 = getelementptr inbounds nuw %struct.ossl_record_layer_st, ptr %125, i32 0, i32 16
  %127 = load i64, ptr %126, align 8, !tbaa !49
  %128 = load i64, ptr %14, align 8, !tbaa !38
  %129 = icmp ult i64 %127, %128
  br i1 %129, label %130, label %134

130:                                              ; preds = %124
  %131 = load i64, ptr %14, align 8, !tbaa !38
  %132 = load ptr, ptr %6, align 8, !tbaa !16
  %133 = getelementptr inbounds nuw %struct.ossl_record_layer_st, ptr %132, i32 0, i32 16
  store i64 %131, ptr %133, align 8, !tbaa !49
  br label %134

134:                                              ; preds = %130, %124
  call void @ERR_new()
  call void @ERR_set_debug(ptr noundef @.str, i32 noundef 205, ptr noundef @__func__.tls_setup_write_buffer)
  %135 = load ptr, ptr %6, align 8, !tbaa !16
  call void (ptr, i32, i32, ptr, ...) @ossl_rlayer_fatal(ptr noundef %135, i32 noundef -1, i32 noundef 524303, ptr noundef null)
  store i32 0, ptr %5, align 4
  store i32 1, ptr %19, align 4
  br label %145

136:                                              ; preds = %119
  br label %137

137:                                              ; preds = %136, %113
  %138 = load ptr, ptr %17, align 8, !tbaa !3
  call void @llvm.memset.p0.i64(ptr align 8 %138, i8 0, i64 48, i1 false)
  %139 = load ptr, ptr %10, align 8, !tbaa !15
  %140 = load ptr, ptr %17, align 8, !tbaa !3
  %141 = getelementptr inbounds nuw %struct.tls_buffer_st, ptr %140, i32 0, i32 0
  store ptr %139, ptr %141, align 8, !tbaa !8
  %142 = load i64, ptr %18, align 8, !tbaa !38
  %143 = load ptr, ptr %17, align 8, !tbaa !3
  %144 = getelementptr inbounds nuw %struct.tls_buffer_st, ptr %143, i32 0, i32 2
  store i64 %142, ptr %144, align 8, !tbaa !48
  store i32 0, ptr %19, align 4
  br label %145

145:                                              ; preds = %137, %134
  call void @llvm.lifetime.end.p0(i64 8, ptr %18) #10
  call void @llvm.lifetime.end.p0(i64 8, ptr %17) #10
  %146 = load i32, ptr %19, align 4
  switch i32 %146, label %157 [
    i32 0, label %147
  ]

147:                                              ; preds = %145
  br label %148

148:                                              ; preds = %147
  %149 = load i64, ptr %14, align 8, !tbaa !38
  %150 = add i64 %149, 1
  store i64 %150, ptr %14, align 8, !tbaa !38
  br label %81, !llvm.loop !50

151:                                              ; preds = %81
  %152 = load ptr, ptr %6, align 8, !tbaa !16
  %153 = load i64, ptr %14, align 8, !tbaa !38
  call void @tls_release_write_buffer_int(ptr noundef %152, i64 noundef %153)
  %154 = load i64, ptr %7, align 8, !tbaa !38
  %155 = load ptr, ptr %6, align 8, !tbaa !16
  %156 = getelementptr inbounds nuw %struct.ossl_record_layer_st, ptr %155, i32 0, i32 16
  store i64 %154, ptr %156, align 8, !tbaa !49
  store i32 1, ptr %5, align 4
  store i32 1, ptr %19, align 4
  br label %157

157:                                              ; preds = %151, %145
  call void @llvm.lifetime.end.p0(i64 8, ptr %16) #10
  call void @llvm.lifetime.end.p0(i64 8, ptr %15) #10
  call void @llvm.lifetime.end.p0(i64 8, ptr %14) #10
  call void @llvm.lifetime.end.p0(i64 8, ptr %13) #10
  call void @llvm.lifetime.end.p0(i64 8, ptr %12) #10
  call void @llvm.lifetime.end.p0(i64 8, ptr %11) #10
  call void @llvm.lifetime.end.p0(i64 8, ptr %10) #10
  %158 = load i32, ptr %5, align 4
  ret i32 %158
}