; Function Attrs: nounwind uwtable
define range(i32 0, 2) i32 @tls_setup_write_buffer(ptr noundef captures(none) %0, i64 noundef %1, i64 noundef %2, i64 noundef %3) local_unnamed_addr #0 {
  %5 = icmp eq i64 %2, 0
  br i1 %5, label %9, label %6

6:                                                ; preds = %4
  %7 = icmp ugt i64 %1, 1
  %8 = icmp eq i64 %3, 0
  %or.cond = and i1 %7, %8
  br i1 %or.cond, label %9, label %44

9:                                                ; preds = %6, %4
  %10 = getelementptr inbounds nuw i8, ptr %0, i64 16
  %11 = load i32, ptr %10, align 8, !tbaa !30
  %.not = icmp eq i32 %11, 0
  %. = select i1 %.not, i64 12, i64 21
  %12 = getelementptr inbounds nuw i8, ptr %0, i64 20
  %13 = load i32, ptr %12, align 4, !tbaa !31
  %14 = icmp eq i32 %13, 772
  %.053 = zext i1 %14 to i64
  %15 = getelementptr inbounds nuw i8, ptr %0, i64 4144
  %16 = load i64, ptr %15, align 8, !tbaa !32
  %17 = add i64 %., %16
  %18 = getelementptr inbounds nuw i8, ptr %0, i64 4172
  %19 = load i32, ptr %18, align 4, !tbaa !33
  %20 = zext i32 %19 to i64
  %21 = add i64 %17, %.053
  %22 = add i64 %21, %20
  %23 = add i64 %22, 80
  %24 = getelementptr inbounds nuw i8, ptr %0, i64 80
  %25 = load i64, ptr %24, align 8, !tbaa !34
  %26 = and i64 %25, 131072
  %.not.i = icmp eq i64 %26, 0
  br i1 %.not.i, label %27, label %tls_allow_compression.exit.thread

27:                                               ; preds = %9
  %28 = getelementptr inbounds nuw i8, ptr %0, i64 4400
  %29 = load ptr, ptr %28, align 8, !tbaa !35
  %30 = icmp eq ptr %29, null
  br i1 %30, label %tls_allow_compression.exit.thread69, label %tls_allow_compression.exit

tls_allow_compression.exit.thread69:              ; preds = %27
  %31 = add i64 %22, 1104
  br label %36

tls_allow_compression.exit:                       ; preds = %27
  %32 = getelementptr inbounds nuw i8, ptr %0, i64 4376
  %33 = load ptr, ptr %32, align 8, !tbaa !36
  %34 = tail call i32 %29(ptr noundef %33, i32 noundef 15, i32 noundef 0, i32 noundef 0, ptr noundef null) #13
  %.fr = freeze i32 %34
  %.not73 = icmp eq i32 %.fr, 0
  %35 = add i64 %22, 1104
  br i1 %.not73, label %tls_allow_compression.exit.thread, label %36

tls_allow_compression.exit.thread:                ; preds = %9, %tls_allow_compression.exit
  br label %36

36:                                               ; preds = %tls_allow_compression.exit.thread69, %tls_allow_compression.exit, %tls_allow_compression.exit.thread
  %37 = phi i64 [ %23, %tls_allow_compression.exit.thread ], [ %35, %tls_allow_compression.exit ], [ %31, %tls_allow_compression.exit.thread69 ]
  %38 = load i64, ptr %24, align 8, !tbaa !34
  %39 = and i64 %38, 2048
  %40 = icmp eq i64 %39, 0
  br i1 %40, label %41, label %44

41:                                               ; preds = %36
  %42 = add nuw nsw i64 %., 80
  %43 = add i64 %42, %37
  br label %44

44:                                               ; preds = %36, %41, %6
  %.054 = phi i64 [ %43, %41 ], [ %37, %36 ], [ 0, %6 ]
  %45 = getelementptr inbounds nuw i8, ptr %0, i64 96
  %.not76 = icmp eq i64 %1, 0
  br i1 %.not76, label %._crit_edge, label %.lr.ph

.lr.ph:                                           ; preds = %44, %62
  %.05675 = phi i64 [ %64, %62 ], [ 0, %44 ]
  %46 = getelementptr inbounds nuw %struct.tls_buffer_st, ptr %45, i64 %.05675
  %47 = icmp eq i64 %.05675, 0
  %48 = select i1 %47, i64 %2, i64 %3
  %49 = icmp eq i64 %48, 0
  %spec.select = select i1 %49, i64 %.054, i64 %48
  %50 = getelementptr inbounds nuw i8, ptr %46, i64 16
  %51 = load i64, ptr %50, align 8, !tbaa !37
  %.not64 = icmp eq i64 %51, %spec.select
  %.pr = load ptr, ptr %46, align 8, !tbaa !3
  br i1 %.not64, label %52, label %.thread

.thread:                                          ; preds = %.lr.ph
  tail call void @CRYPTO_free(ptr noundef %.pr, ptr noundef nonnull @.str, i32 noundef 190) #13
  store ptr null, ptr %46, align 8, !tbaa !3
  br label %54

52:                                               ; preds = %.lr.ph
  %53 = icmp eq ptr %.pr, null
  br i1 %53, label %54, label %62

54:                                               ; preds = %.thread, %52
  %55 = tail call noalias ptr @CRYPTO_malloc(i64 noundef %spec.select, ptr noundef nonnull @.str, i32 noundef 196) #13
  %56 = icmp eq ptr %55, null
  br i1 %56, label %57, label %62

57:                                               ; preds = %54
  %58 = getelementptr inbounds nuw i8, ptr %0, i64 1688
  %59 = load i64, ptr %58, align 8, !tbaa !38
  %60 = icmp ult i64 %59, %.05675
  br i1 %60, label %61, label %.critedge

61:                                               ; preds = %57
  store i64 %.05675, ptr %58, align 8, !tbaa !38
  br label %.critedge

.critedge:                                        ; preds = %61, %57
  tail call void @ERR_new() #13
  tail call void @ERR_set_debug(ptr noundef nonnull @.str, i32 noundef 205, ptr noundef nonnull @__func__.tls_setup_write_buffer) #13
  tail call void (ptr, i32, i32, ptr, ...) @ossl_rlayer_fatal(ptr noundef nonnull %0, i32 noundef -1, i32 noundef 524303, ptr noundef null)
  br label %77

62:                                               ; preds = %54, %52
  %.057 = phi ptr [ %55, %54 ], [ %.pr, %52 ]
  %63 = getelementptr inbounds nuw i8, ptr %46, i64 8
  tail call void @llvm.memset.p0.i64(ptr noundef nonnull align 8 dereferenceable(48) %63, i8 0, i64 40, i1 false)
  store ptr %.057, ptr %46, align 8, !tbaa !3
  store i64 %spec.select, ptr %50, align 8, !tbaa !37
  %64 = add nuw i64 %.05675, 1
  %exitcond.not = icmp eq i64 %64, %1
  br i1 %exitcond.not, label %._crit_edge, label %.lr.ph, !llvm.loop !39

._crit_edge:                                      ; preds = %62, %44
  %65 = getelementptr inbounds nuw i8, ptr %0, i64 1688
  %66 = load i64, ptr %65, align 8, !tbaa !38
  %67 = icmp ugt i64 %66, %1
  br i1 %67, label %.lr.ph.i, label %tls_release_write_buffer_int.exit

.lr.ph.i:                                         ; preds = %._crit_edge, %75
  %.09.i = phi i64 [ %68, %75 ], [ %66, %._crit_edge ]
  %68 = add i64 %.09.i, -1
  %69 = getelementptr inbounds nuw [33 x %struct.tls_buffer_st], ptr %45, i64 0, i64 %68
  %70 = getelementptr inbounds nuw i8, ptr %69, i64 40
  %71 = load i32, ptr %70, align 8, !tbaa !41
  %.not.i65 = icmp eq i32 %71, 0
  br i1 %.not.i65, label %73, label %72

72:                                               ; preds = %.lr.ph.i
  store i32 0, ptr %70, align 8, !tbaa !41
  br label %75

73:                                               ; preds = %.lr.ph.i
  %74 = load ptr, ptr %69, align 8, !tbaa !3
  tail call void @CRYPTO_free(ptr noundef %74, ptr noundef nonnull @.str, i32 noundef 136) #13
  br label %75

75:                                               ; preds = %73, %72
  store ptr null, ptr %69, align 8, !tbaa !3
  %76 = icmp ugt i64 %68, %1
  br i1 %76, label %.lr.ph.i, label %tls_release_write_buffer_int.exit, !llvm.loop !42

tls_release_write_buffer_int.exit:                ; preds = %75, %._crit_edge
  store i64 %1, ptr %65, align 8, !tbaa !38
  br label %77

77:                                               ; preds = %.critedge, %tls_release_write_buffer_int.exit
  %.2 = phi i32 [ 1, %tls_release_write_buffer_int.exit ], [ 0, %.critedge ]
  ret i32 %.2
}